; ModuleID = '5/832.c'
source_filename = "5/832.c"
target datalayout = "e-m:e-p270:32:32-p271:32:32-p272:64:64-i64:64-f80:128-n8:16:32:64-S128"
target triple = "x86_64-pc-linux-gnu"

@.str = private unnamed_addr constant [4 x i8] c"%lf\00", align 1
@.str.1 = private unnamed_addr constant [3 x i8] c"%s\00", align 1
@.str.2 = private unnamed_addr constant [4 x i8] c"yes\00", align 1
@.str.3 = private unnamed_addr constant [3 x i8] c"no\00", align 1
@.str.4 = private unnamed_addr constant [6 x i8] c"error\00", align 1

; Function Attrs: noinline nounwind uwtable
define dso_local i32 @main() #0 {
  %1 = alloca i32, align 4
  %2 = alloca [10000 x i8], align 16
  %3 = alloca [10000 x i8], align 16
  %4 = alloca i32, align 4
  %5 = alloca i32, align 4
  %6 = alloca i32, align 4
  %7 = alloca i32, align 4
  %8 = alloca double, align 8
  %9 = alloca double, align 8
  %10 = alloca double, align 8
  %11 = alloca double, align 8
  %12 = alloca i32, align 4
  %13 = alloca i32, align 4
  %14 = alloca i32, align 4
  store i32 0, i32* %1, align 4
  store i32 0, i32* %6, align 4
  store i32 0, i32* %7, align 4
  %15 = call i32 (i8*, ...) @__isoc99_scanf(i8* getelementptr inbounds ([4 x i8], [4 x i8]* @.str, i64 0, i64 0), double* %11)
  %16 = getelementptr inbounds [10000 x i8], [10000 x i8]* %2, i64 0, i64 0
  %17 = call i32 (i8*, ...) @__isoc99_scanf(i8* getelementptr inbounds ([3 x i8], [3 x i8]* @.str.1, i64 0, i64 0), i8* %16)
  %18 = getelementptr inbounds [10000 x i8], [10000 x i8]* %3, i64 0, i64 0
  %19 = call i32 (i8*, ...) @__isoc99_scanf(i8* getelementptr inbounds ([3 x i8], [3 x i8]* @.str.1, i64 0, i64 0), i8* %18)
  store i32 0, i32* %12, align 4
  br label %20

20:                                               ; preds = %59, %0
  %21 = load i32, i32* %12, align 4
  %22 = sext i32 %21 to i64
  %23 = getelementptr inbounds [10000 x i8], [10000 x i8]* %2, i64 0, i64 %22
  %24 = load i8, i8* %23, align 1
  %25 = sext i8 %24 to i32
  %26 = icmp ne i32 %25, 0
  br i1 %26, label %27, label %62

27:                                               ; preds = %20
  %28 = load i32, i32* %12, align 4
  %29 = sext i32 %28 to i64
  %30 = getelementptr inbounds [10000 x i8], [10000 x i8]* %2, i64 0, i64 %29
  %31 = load i8, i8* %30, align 1
  %32 = sext i8 %31 to i32
  %33 = icmp eq i32 %32, 65
  br i1 %33, label %55, label %34

34:                                               ; preds = %27
  %35 = load i32, i32* %12, align 4
  %36 = sext i32 %35 to i64
  %37 = getelementptr inbounds [10000 x i8], [10000 x i8]* %2, i64 0, i64 %36
  %38 = load i8, i8* %37, align 1
  %39 = sext i8 %38 to i32
  %40 = icmp eq i32 %39, 84
  br i1 %40, label %55, label %41

41:                                               ; preds = %34
  %42 = load i32, i32* %12, align 4
  %43 = sext i32 %42 to i64
  %44 = getelementptr inbounds [10000 x i8], [10000 x i8]* %2, i64 0, i64 %43
  %45 = load i8, i8* %44, align 1
  %46 = sext i8 %45 to i32
  %47 = icmp eq i32 %46, 67
  br i1 %47, label %55, label %48

48:                                               ; preds = %41
  %49 = load i32, i32* %12, align 4
  %50 = sext i32 %49 to i64
  %51 = getelementptr inbounds [10000 x i8], [10000 x i8]* %2, i64 0, i64 %50
  %52 = load i8, i8* %51, align 1
  %53 = sext i8 %52 to i32
  %54 = icmp eq i32 %53, 71
  br i1 %54, label %55, label %58

55:                                               ; preds = %48, %41, %34, %27
  %56 = load i32, i32* %7, align 4
  %57 = add nsw i32 %56, 1
  store i32 %57, i32* %7, align 4
  br label %58

58:                                               ; preds = %55, %48
  br label %59

59:                                               ; preds = %58
  %60 = load i32, i32* %12, align 4
  %61 = add nsw i32 %60, 1
  store i32 %61, i32* %12, align 4
  br label %20

62:                                               ; preds = %20
  store i32 0, i32* %13, align 4
  br label %63

63:                                               ; preds = %102, %62
  %64 = load i32, i32* %13, align 4
  %65 = sext i32 %64 to i64
  %66 = getelementptr inbounds [10000 x i8], [10000 x i8]* %3, i64 0, i64 %65
  %67 = load i8, i8* %66, align 1
  %68 = sext i8 %67 to i32
  %69 = icmp ne i32 %68, 0
  br i1 %69, label %70, label %105

70:                                               ; preds = %63
  %71 = load i32, i32* %13, align 4
  %72 = sext i32 %71 to i64
  %73 = getelementptr inbounds [10000 x i8], [10000 x i8]* %3, i64 0, i64 %72
  %74 = load i8, i8* %73, align 1
  %75 = sext i8 %74 to i32
  %76 = icmp eq i32 %75, 65
  br i1 %76, label %98, label %77

77:                                               ; preds = %70
  %78 = load i32, i32* %13, align 4
  %79 = sext i32 %78 to i64
  %80 = getelementptr inbounds [10000 x i8], [10000 x i8]* %3, i64 0, i64 %79
  %81 = load i8, i8* %80, align 1
  %82 = sext i8 %81 to i32
  %83 = icmp eq i32 %82, 84
  br i1 %83, label %98, label %84

84:                                               ; preds = %77
  %85 = load i32, i32* %13, align 4
  %86 = sext i32 %85 to i64
  %87 = getelementptr inbounds [10000 x i8], [10000 x i8]* %3, i64 0, i64 %86
  %88 = load i8, i8* %87, align 1
  %89 = sext i8 %88 to i32
  %90 = icmp eq i32 %89, 67
  br i1 %90, label %98, label %91

91:                                               ; preds = %84
  %92 = load i32, i32* %13, align 4
  %93 = sext i32 %92 to i64
  %94 = getelementptr inbounds [10000 x i8], [10000 x i8]* %3, i64 0, i64 %93
  %95 = load i8, i8* %94, align 1
  %96 = sext i8 %95 to i32
  %97 = icmp eq i32 %96, 71
  br i1 %97, label %98, label %101

98:                                               ; preds = %91, %84, %77, %70
  %99 = load i32, i32* %7, align 4
  %100 = add nsw i32 %99, 1
  store i32 %100, i32* %7, align 4
  br label %101

101:                                              ; preds = %98, %91
  br label %102

102:                                              ; preds = %101
  %103 = load i32, i32* %13, align 4
  %104 = add nsw i32 %103, 1
  store i32 %104, i32* %13, align 4
  br label %63

105:                                              ; preds = %63
  %106 = getelementptr inbounds [10000 x i8], [10000 x i8]* %2, i64 0, i64 0
  %107 = call i64 @strlen(i8* %106) #3
  %108 = trunc i64 %107 to i32
  store i32 %108, i32* %4, align 4
  %109 = getelementptr inbounds [10000 x i8], [10000 x i8]* %3, i64 0, i64 0
  %110 = call i64 @strlen(i8* %109) #3
  %111 = trunc i64 %110 to i32
  store i32 %111, i32* %5, align 4
  %112 = load i32, i32* %4, align 4
  %113 = load i32, i32* %5, align 4
  %114 = icmp eq i32 %112, %113
  br i1 %114, label %115, label %173

115:                                              ; preds = %105
  store i32 0, i32* %14, align 4
  br label %116

116:                                              ; preds = %139, %115
  %117 = load i32, i32* %14, align 4
  %118 = sext i32 %117 to i64
  %119 = getelementptr inbounds [10000 x i8], [10000 x i8]* %2, i64 0, i64 %118
  %120 = load i8, i8* %119, align 1
  %121 = sext i8 %120 to i32
  %122 = icmp ne i32 %121, 0
  br i1 %122, label %123, label %142

123:                                              ; preds = %116
  %124 = load i32, i32* %14, align 4
  %125 = sext i32 %124 to i64
  %126 = getelementptr inbounds [10000 x i8], [10000 x i8]* %2, i64 0, i64 %125
  %127 = load i8, i8* %126, align 1
  %128 = sext i8 %127 to i32
  %129 = load i32, i32* %14, align 4
  %130 = sext i32 %129 to i64
  %131 = getelementptr inbounds [10000 x i8], [10000 x i8]* %3, i64 0, i64 %130
  %132 = load i8, i8* %131, align 1
  %133 = sext i8 %132 to i32
  %134 = icmp eq i32 %128, %133
  br i1 %134, label %135, label %138

135:                                              ; preds = %123
  %136 = load i32, i32* %6, align 4
  %137 = add nsw i32 %136, 1
  store i32 %137, i32* %6, align 4
  br label %138

138:                                              ; preds = %135, %123
  br label %139

139:                                              ; preds = %138
  %140 = load i32, i32* %14, align 4
  %141 = add nsw i32 %140, 1
  store i32 %141, i32* %14, align 4
  br label %116

142:                                              ; preds = %116
  %143 = load i32, i32* %6, align 4
  %144 = sitofp i32 %143 to double
  store double %144, double* %9, align 8
  %145 = load i32, i32* %4, align 4
  %146 = sitofp i32 %145 to double
  store double %146, double* %10, align 8
  %147 = load double, double* %9, align 8
  %148 = load double, double* %10, align 8
  %149 = fdiv double %147, %148
  store double %149, double* %8, align 8
  %150 = load double, double* %8, align 8
  %151 = load double, double* %11, align 8
  %152 = fcmp oge double %150, %151
  br i1 %152, label %153, label %160

153:                                              ; preds = %142
  %154 = load i32, i32* %7, align 4
  %155 = load i32, i32* %4, align 4
  %156 = mul nsw i32 2, %155
  %157 = icmp eq i32 %154, %156
  br i1 %157, label %158, label %160

158:                                              ; preds = %153
  %159 = call i32 (i8*, ...) @printf(i8* getelementptr inbounds ([4 x i8], [4 x i8]* @.str.2, i64 0, i64 0))
  br label %172

160:                                              ; preds = %153, %142
  %161 = load double, double* %8, align 8
  %162 = load double, double* %11, align 8
  %163 = fcmp olt double %161, %162
  br i1 %163, label %164, label %171

164:                                              ; preds = %160
  %165 = load i32, i32* %7, align 4
  %166 = load i32, i32* %4, align 4
  %167 = mul nsw i32 2, %166
  %168 = icmp eq i32 %165, %167
  br i1 %168, label %169, label %171

169:                                              ; preds = %164
  %170 = call i32 (i8*, ...) @printf(i8* getelementptr inbounds ([3 x i8], [3 x i8]* @.str.3, i64 0, i64 0))
  br label %171

171:                                              ; preds = %169, %164, %160
  br label %172

172:                                              ; preds = %171, %158
  br label %173

173:                                              ; preds = %172, %105
  %174 = load i32, i32* %4, align 4
  %175 = load i32, i32* %5, align 4
  %176 = icmp ne i32 %174, %175
  br i1 %176, label %182, label %177

177:                                              ; preds = %173
  %178 = load i32, i32* %7, align 4
  %179 = load i32, i32* %4, align 4
  %180 = mul nsw i32 2, %179
  %181 = icmp ne i32 %178, %180
  br i1 %181, label %182, label %184

182:                                              ; preds = %177, %173
  %183 = call i32 (i8*, ...) @printf(i8* getelementptr inbounds ([6 x i8], [6 x i8]* @.str.4, i64 0, i64 0))
  br label %184

184:                                              ; preds = %182, %177
  ret i32 0
}

declare dso_local i32 @__isoc99_scanf(i8*, ...) #1

; Function Attrs: nounwind readonly
declare dso_local i64 @strlen(i8*) #2

declare dso_local i32 @printf(i8*, ...) #1


!llvm.module.flags = !{!0}
!llvm.ident = !{!1}

!0 = !{i32 1, !"wchar_size", i32 4}
!1 = !{!"clang version 10.0.0-4ubuntu1 "}
